libQt6QuickTimeline.so.6:NonQt
libQt6QuickTimeline.so.6:Qt_6
libQt6QuickTimeline.so.6:Qt_6_PRIVATE_API
libQt6QuickTimeline.so.6:_Z35qml_register_types_QtQuick_Timelinev@@Qt_6
libQt6QuickTimeline.so.6:_ZN14QQuickKeyframe11qt_metacallEN11QMetaObject4CallEiPPv@@Qt_6_PRIVATE_API
libQt6QuickTimeline.so.6:_ZN14QQuickKeyframe11qt_metacastEPKc@@Qt_6_PRIVATE_API
libQt6QuickTimeline.so.6:_ZN14QQuickKeyframe12frameChangedEv@@Qt_6_PRIVATE_API
libQt6QuickTimeline.so.6:_ZN14QQuickKeyframe12valueChangedEv@@Qt_6_PRIVATE_API
libQt6QuickTimeline.so.6:_ZN14QQuickKeyframe18easingCurveChangedEv@@Qt_6_PRIVATE_API
libQt6QuickTimeline.so.6:_ZN14QQuickKeyframe5resetEv@@Qt_6_PRIVATE_API
libQt6QuickTimeline.so.6:_ZN14QQuickKeyframe8setFrameEd@@Qt_6_PRIVATE_API
libQt6QuickTimeline.so.6:_ZN14QQuickKeyframe8setValueERK8QVariant@@Qt_6_PRIVATE_API
libQt6QuickTimeline.so.6:_ZN14QQuickKeyframe9setEasingERK12QEasingCurve@@Qt_6_PRIVATE_API
libQt6QuickTimeline.so.6:_ZN14QQuickKeyframeC1EP7QObject@@Qt_6_PRIVATE_API
libQt6QuickTimeline.so.6:_ZN14QQuickKeyframeC1ER21QQuickKeyframePrivateP7QObject@@Qt_6_PRIVATE_API
libQt6QuickTimeline.so.6:_ZN14QQuickKeyframeC2EP7QObject@@Qt_6_PRIVATE_API
libQt6QuickTimeline.so.6:_ZN14QQuickKeyframeC2ER21QQuickKeyframePrivateP7QObject@@Qt_6_PRIVATE_API
libQt6QuickTimeline.so.6:_ZN14QQuickTimeline10animationsEv@@Qt_6_PRIVATE_API
libQt6QuickTimeline.so.6:_ZN14QQuickTimeline10classBeginEv@@Qt_6_PRIVATE_API
libQt6QuickTimeline.so.6:_ZN14QQuickTimeline10reevaluateEv@@Qt_6_PRIVATE_API
libQt6QuickTimeline.so.6:_ZN14QQuickTimeline10setEnabledEb@@Qt_6_PRIVATE_API
libQt6QuickTimeline.so.6:_ZN14QQuickTimeline11qt_metacallEN11QMetaObject4CallEiPPv@@Qt_6_PRIVATE_API
libQt6QuickTimeline.so.6:_ZN14QQuickTimeline11qt_metacastEPKc@@Qt_6_PRIVATE_API
libQt6QuickTimeline.so.6:_ZN14QQuickTimeline11setEndFrameEd@@Qt_6_PRIVATE_API
libQt6QuickTimeline.so.6:_ZN14QQuickTimeline13setStartFrameEd@@Qt_6_PRIVATE_API
libQt6QuickTimeline.so.6:_ZN14QQuickTimeline14enabledChangedEv@@Qt_6_PRIVATE_API
libQt6QuickTimeline.so.6:_ZN14QQuickTimeline14keyframeGroupsEv@@Qt_6_PRIVATE_API
libQt6QuickTimeline.so.6:_ZN14QQuickTimeline15endFrameChangedEv@@Qt_6_PRIVATE_API
libQt6QuickTimeline.so.6:_ZN14QQuickTimeline15setCurrentFrameEd@@Qt_6_PRIVATE_API
libQt6QuickTimeline.so.6:_ZN14QQuickTimeline17componentCompleteEv@@Qt_6_PRIVATE_API
libQt6QuickTimeline.so.6:_ZN14QQuickTimeline17startFrameChangedEv@@Qt_6_PRIVATE_API
libQt6QuickTimeline.so.6:_ZN14QQuickTimeline19currentFrameChangedEv@@Qt_6_PRIVATE_API
libQt6QuickTimeline.so.6:_ZN14QQuickTimeline4initEv@@Qt_6_PRIVATE_API
libQt6QuickTimeline.so.6:_ZN14QQuickTimeline5resetEv@@Qt_6_PRIVATE_API
libQt6QuickTimeline.so.6:_ZN14QQuickTimelineC1EP7QObject@@Qt_6_PRIVATE_API
libQt6QuickTimeline.so.6:_ZN14QQuickTimelineC2EP7QObject@@Qt_6_PRIVATE_API
libQt6QuickTimeline.so.6:_ZN19QQuickKeyframeGroup10classBeginEv@@Qt_6_PRIVATE_API
libQt6QuickTimeline.so.6:_ZN19QQuickKeyframeGroup11qt_metacallEN11QMetaObject4CallEiPPv@@Qt_6_PRIVATE_API
libQt6QuickTimeline.so.6:_ZN19QQuickKeyframeGroup11qt_metacastEPKc@@Qt_6_PRIVATE_API
libQt6QuickTimeline.so.6:_ZN19QQuickKeyframeGroup11setPropertyERK7QString@@Qt_6_PRIVATE_API
libQt6QuickTimeline.so.6:_ZN19QQuickKeyframeGroup11setPropertyEd@@Qt_6_PRIVATE_API
libQt6QuickTimeline.so.6:_ZN19QQuickKeyframeGroup13targetChangedEv@@Qt_6_PRIVATE_API
libQt6QuickTimeline.so.6:_ZN19QQuickKeyframeGroup14setupKeyframesEv@@Qt_6_PRIVATE_API
libQt6QuickTimeline.so.6:_ZN19QQuickKeyframeGroup15propertyChangedEv@@Qt_6_PRIVATE_API
libQt6QuickTimeline.so.6:_ZN19QQuickKeyframeGroup15setKeyframeDataERK10QByteArray@@Qt_6_PRIVATE_API
libQt6QuickTimeline.so.6:_ZN19QQuickKeyframeGroup15setTargetObjectEP7QObject@@Qt_6_PRIVATE_API
libQt6QuickTimeline.so.6:_ZN19QQuickKeyframeGroup17componentCompleteEv@@Qt_6_PRIVATE_API
libQt6QuickTimeline.so.6:_ZN19QQuickKeyframeGroup17resetDefaultValueEv@@Qt_6_PRIVATE_API
libQt6QuickTimeline.so.6:_ZN19QQuickKeyframeGroup17setKeyframeSourceERK4QUrl@@Qt_6_PRIVATE_API
libQt6QuickTimeline.so.6:_ZN19QQuickKeyframeGroup21keyframeSourceChangedEv@@Qt_6_PRIVATE_API
libQt6QuickTimeline.so.6:_ZN19QQuickKeyframeGroup4initEv@@Qt_6_PRIVATE_API
libQt6QuickTimeline.so.6:_ZN19QQuickKeyframeGroup5resetEv@@Qt_6_PRIVATE_API
libQt6QuickTimeline.so.6:_ZN19QQuickKeyframeGroup9keyframesEv@@Qt_6_PRIVATE_API
libQt6QuickTimeline.so.6:_ZN19QQuickKeyframeGroupC1EP7QObject@@Qt_6_PRIVATE_API
libQt6QuickTimeline.so.6:_ZN19QQuickKeyframeGroupC2EP7QObject@@Qt_6_PRIVATE_API
libQt6QuickTimeline.so.6:_ZN23QQuickTimelineAnimation11qt_metacallEN11QMetaObject4CallEiPPv@@Qt_6_PRIVATE_API
libQt6QuickTimeline.so.6:_ZN23QQuickTimelineAnimation11qt_metacastEPKc@@Qt_6_PRIVATE_API
libQt6QuickTimeline.so.6:_ZN23QQuickTimelineAnimation11setPingPongEb@@Qt_6_PRIVATE_API
libQt6QuickTimeline.so.6:_ZN23QQuickTimelineAnimation13handleStartedEv@@Qt_6_PRIVATE_API
libQt6QuickTimeline.so.6:_ZN23QQuickTimelineAnimation13handleStoppedEv@@Qt_6_PRIVATE_API
libQt6QuickTimeline.so.6:_ZN23QQuickTimelineAnimation15pingPongChangedEv@@Qt_6_PRIVATE_API
libQt6QuickTimeline.so.6:_ZN23QQuickTimelineAnimation8finishedEv@@Qt_6_PRIVATE_API
libQt6QuickTimeline.so.6:_ZN23QQuickTimelineAnimationC1EP7QObject@@Qt_6_PRIVATE_API
libQt6QuickTimeline.so.6:_ZN23QQuickTimelineAnimationC2EP7QObject@@Qt_6_PRIVATE_API
libQt6QuickTimeline.so.6:_ZNK14QQuickKeyframe10metaObjectEv@@Qt_6_PRIVATE_API
libQt6QuickTimeline.so.6:_ZNK14QQuickKeyframe5frameEv@@Qt_6_PRIVATE_API
libQt6QuickTimeline.so.6:_ZNK14QQuickKeyframe5valueEv@@Qt_6_PRIVATE_API
libQt6QuickTimeline.so.6:_ZNK14QQuickKeyframe6easingEv@@Qt_6_PRIVATE_API
libQt6QuickTimeline.so.6:_ZNK14QQuickKeyframe8evaluateEPS_di@@Qt_6_PRIVATE_API
libQt6QuickTimeline.so.6:_ZNK14QQuickTimeline10metaObjectEv@@Qt_6_PRIVATE_API
libQt6QuickTimeline.so.6:_ZNK14QQuickTimeline10startFrameEv@@Qt_6_PRIVATE_API
libQt6QuickTimeline.so.6:_ZNK14QQuickTimeline12currentFrameEv@@Qt_6_PRIVATE_API
libQt6QuickTimeline.so.6:_ZNK14QQuickTimeline13getAnimationsEv@@Qt_6_PRIVATE_API
libQt6QuickTimeline.so.6:_ZNK14QQuickTimeline7enabledEv@@Qt_6_PRIVATE_API
libQt6QuickTimeline.so.6:_ZNK14QQuickTimeline8endFrameEv@@Qt_6_PRIVATE_API
libQt6QuickTimeline.so.6:_ZNK19QQuickKeyframeGroup10metaObjectEv@@Qt_6_PRIVATE_API
libQt6QuickTimeline.so.6:_ZNK19QQuickKeyframeGroup12keyframeDataEv@@Qt_6_PRIVATE_API
libQt6QuickTimeline.so.6:_ZNK19QQuickKeyframeGroup14keyframeSourceEv@@Qt_6_PRIVATE_API
libQt6QuickTimeline.so.6:_ZNK19QQuickKeyframeGroup6targetEv@@Qt_6_PRIVATE_API
libQt6QuickTimeline.so.6:_ZNK19QQuickKeyframeGroup8evaluateEd@@Qt_6_PRIVATE_API
libQt6QuickTimeline.so.6:_ZNK19QQuickKeyframeGroup8propertyEv@@Qt_6_PRIVATE_API
libQt6QuickTimeline.so.6:_ZNK23QQuickTimelineAnimation10metaObjectEv@@Qt_6_PRIVATE_API
libQt6QuickTimeline.so.6:_ZNK23QQuickTimelineAnimation8pingPongEv@@Qt_6_PRIVATE_API
libQt6QuickTimeline.so.6:_ZThn16_N14QQuickTimeline10classBeginEv@@Qt_6_PRIVATE_API
libQt6QuickTimeline.so.6:_ZThn16_N14QQuickTimeline17componentCompleteEv@@Qt_6_PRIVATE_API
libQt6QuickTimeline.so.6:_ZThn16_N19QQuickKeyframeGroup10classBeginEv@@Qt_6_PRIVATE_API
libQt6QuickTimeline.so.6:_ZThn16_N19QQuickKeyframeGroup17componentCompleteEv@@Qt_6_PRIVATE_API
libQt6QuickTimelineBlendTrees.so.6:NonQt
libQt6QuickTimelineBlendTrees.so.6:Qt_6
libQt6QuickTimelineBlendTrees.so.6:Qt_6_PRIVATE_API
libQt6QuickTimelineBlendTrees.so.6:_Z46qml_register_types_QtQuick_Timeline_BlendTreesv@@Qt_6
libQt6QuickTimelineBlendTrees.so.6:_ZN14QBlendTreeNode11qt_metacallEN11QMetaObject4CallEiPPv@@Qt_6_PRIVATE_API
libQt6QuickTimelineBlendTrees.so.6:_ZN14QBlendTreeNode11qt_metacastEPKc@@Qt_6_PRIVATE_API
libQt6QuickTimelineBlendTrees.so.6:_ZN14QBlendTreeNode16frameDataChangedEv@@Qt_6_PRIVATE_API
libQt6QuickTimelineBlendTrees.so.6:_ZN14QBlendTreeNode16setOutputEnabledEb@@Qt_6_PRIVATE_API
libQt6QuickTimelineBlendTrees.so.6:_ZN14QBlendTreeNode20outputEnabledChangedEv@@Qt_6_PRIVATE_API
libQt6QuickTimelineBlendTrees.so.6:_ZN14QBlendTreeNode22handleFrameDataChangedEv@@Qt_6_PRIVATE_API
libQt6QuickTimelineBlendTrees.so.6:_ZN14QBlendTreeNode9frameDataEv@@Qt_6_PRIVATE_API
libQt6QuickTimelineBlendTrees.so.6:_ZN14QBlendTreeNodeC1EP7QObject@@Qt_6_PRIVATE_API
libQt6QuickTimelineBlendTrees.so.6:_ZN14QBlendTreeNodeC2EP7QObject@@Qt_6_PRIVATE_API
libQt6QuickTimelineBlendTrees.so.6:_ZN19QBlendAnimationNode10setSource1EP14QBlendTreeNode@@Qt_6_PRIVATE_API
libQt6QuickTimelineBlendTrees.so.6:_ZN19QBlendAnimationNode10setSource2EP14QBlendTreeNode@@Qt_6_PRIVATE_API
libQt6QuickTimelineBlendTrees.so.6:_ZN19QBlendAnimationNode11qt_metacallEN11QMetaObject4CallEiPPv@@Qt_6_PRIVATE_API
libQt6QuickTimelineBlendTrees.so.6:_ZN19QBlendAnimationNode11qt_metacastEPKc@@Qt_6_PRIVATE_API
libQt6QuickTimelineBlendTrees.so.6:_ZN19QBlendAnimationNode13weightChangedEv@@Qt_6_PRIVATE_API
libQt6QuickTimelineBlendTrees.so.6:_ZN19QBlendAnimationNode14source1ChangedEv@@Qt_6_PRIVATE_API
libQt6QuickTimelineBlendTrees.so.6:_ZN19QBlendAnimationNode14source2ChangedEv@@Qt_6_PRIVATE_API
libQt6QuickTimelineBlendTrees.so.6:_ZN19QBlendAnimationNode27handleInputFrameDataChangedEv@@Qt_6_PRIVATE_API
libQt6QuickTimelineBlendTrees.so.6:_ZN19QBlendAnimationNode9setWeightEd@@Qt_6_PRIVATE_API
libQt6QuickTimelineBlendTrees.so.6:_ZN19QBlendAnimationNodeC1EP7QObject@@Qt_6_PRIVATE_API
libQt6QuickTimelineBlendTrees.so.6:_ZN19QBlendAnimationNodeC2EP7QObject@@Qt_6_PRIVATE_API
libQt6QuickTimelineBlendTrees.so.6:_ZN22QTimelineAnimationNode11qt_metacallEN11QMetaObject4CallEiPPv@@Qt_6_PRIVATE_API
libQt6QuickTimelineBlendTrees.so.6:_ZN22QTimelineAnimationNode11qt_metacastEPKc@@Qt_6_PRIVATE_API
libQt6QuickTimelineBlendTrees.so.6:_ZN22QTimelineAnimationNode11setTimelineEP14QQuickTimeline@@Qt_6_PRIVATE_API
libQt6QuickTimelineBlendTrees.so.6:_ZN22QTimelineAnimationNode12setAnimationEP23QQuickTimelineAnimation@@Qt_6_PRIVATE_API
libQt6QuickTimelineBlendTrees.so.6:_ZN22QTimelineAnimationNode15setCurrentFrameEd@@Qt_6_PRIVATE_API
libQt6QuickTimelineBlendTrees.so.6:_ZN22QTimelineAnimationNode15timelineChangedEv@@Qt_6_PRIVATE_API
libQt6QuickTimelineBlendTrees.so.6:_ZN22QTimelineAnimationNode15updateFrameDataEv@@Qt_6_PRIVATE_API
libQt6QuickTimelineBlendTrees.so.6:_ZN22QTimelineAnimationNode16animationChangedEv@@Qt_6_PRIVATE_API
libQt6QuickTimelineBlendTrees.so.6:_ZN22QTimelineAnimationNode19currentFrameChangedEv@@Qt_6_PRIVATE_API
libQt6QuickTimelineBlendTrees.so.6:_ZN22QTimelineAnimationNode21updateAnimationTargetEv@@Qt_6_PRIVATE_API
libQt6QuickTimelineBlendTrees.so.6:_ZN22QTimelineAnimationNodeC1EP7QObject@@Qt_6_PRIVATE_API
libQt6QuickTimelineBlendTrees.so.6:_ZN22QTimelineAnimationNodeC2EP7QObject@@Qt_6_PRIVATE_API
libQt6QuickTimelineBlendTrees.so.6:_ZNK14QBlendTreeNode10metaObjectEv@@Qt_6_PRIVATE_API
libQt6QuickTimelineBlendTrees.so.6:_ZNK14QBlendTreeNode13outputEnabledEv@@Qt_6_PRIVATE_API
libQt6QuickTimelineBlendTrees.so.6:_ZNK19QBlendAnimationNode10metaObjectEv@@Qt_6_PRIVATE_API
libQt6QuickTimelineBlendTrees.so.6:_ZNK19QBlendAnimationNode6weightEv@@Qt_6_PRIVATE_API
libQt6QuickTimelineBlendTrees.so.6:_ZNK19QBlendAnimationNode7source1Ev@@Qt_6_PRIVATE_API
libQt6QuickTimelineBlendTrees.so.6:_ZNK19QBlendAnimationNode7source2Ev@@Qt_6_PRIVATE_API
libQt6QuickTimelineBlendTrees.so.6:_ZNK22QTimelineAnimationNode10metaObjectEv@@Qt_6_PRIVATE_API
libQt6QuickTimelineBlendTrees.so.6:_ZNK22QTimelineAnimationNode12currentFrameEv@@Qt_6_PRIVATE_API
libQt6QuickTimelineBlendTrees.so.6:_ZNK22QTimelineAnimationNode8timelineEv@@Qt_6_PRIVATE_API
libQt6QuickTimelineBlendTrees.so.6:_ZNK22QTimelineAnimationNode9animationEv@@Qt_6_PRIVATE_API
